; Function Attrs: nounwind sspstrong uwtable
define internal i64 @rb_digest_base_finish(i64 noundef %0) #0 {
  %2 = tail call i64 @rb_obj_class(i64 noundef %0) #9
  %3 = tail call fastcc nonnull ptr @get_digest_base_metadata(i64 noundef %2)
  %4 = tail call ptr @rb_check_typeddata(i64 noundef %0, ptr noundef nonnull @digest_type) #9
  %5 = getelementptr inbounds nuw i8, ptr %3, i64 8
  %6 = load i64, ptr %5, align 8, !tbaa !67
  %7 = tail call i64 @rb_str_new(ptr noundef null, i64 noundef %6) #9, !callees !68
  %8 = getelementptr inbounds nuw i8, ptr %3, i64 48
  %9 = load ptr, ptr %8, align 8, !tbaa !69
  %10 = inttoptr i64 %7 to ptr
  %11 = load i64, ptr %10, align 8, !tbaa !10, !noalias !70
  %12 = and i64 %11, 8192
  %.not.i.i = icmp eq i64 %12, 0
  %13 = getelementptr inbounds nuw i8, ptr %10, i64 24
  br i1 %.not.i.i, label %RSTRING_PTR.exit, label %14

14:                                               ; preds = %1
  %.sroa.2.0.copyload.i = load ptr, ptr %13, align 8
  br label %RSTRING_PTR.exit

RSTRING_PTR.exit:                                 ; preds = %1, %14
  %.sroa.2.0.i = phi ptr [ %.sroa.2.0.copyload.i, %14 ], [ %13, %1 ]
  %15 = tail call i32 %9(ptr noundef %4, ptr noundef %.sroa.2.0.i) #9
  %16 = getelementptr i8, ptr %3, i64 32
  %.val = load ptr, ptr %16, align 8, !tbaa !58
  %17 = tail call i32 %.val(ptr noundef %4) #9
  %.not.i = icmp eq i32 %17, 1
  br i1 %.not.i, label %algo_init.exit, label %18

18:                                               ; preds = %RSTRING_PTR.exit
  %19 = load i64, ptr @rb_eRuntimeError, align 8, !tbaa !6
  tail call void (i64, ptr, ...) @rb_raise(i64 noundef %19, ptr noundef nonnull @.str.37) #10
  unreachable

algo_init.exit:                                   ; preds = %RSTRING_PTR.exit
  ret i64 %7
}